; Function Attrs: mustprogress nofree norecurse nosync nounwind willreturn memory(argmem: readwrite) uwtable
define internal void @thread_local_destructor(ptr noundef captures(address_is_null) %0) #9 {
  %2 = icmp eq ptr %0, null
  br i1 %2, label %6, label %3

3:                                                ; preds = %1
  %4 = load i32, ptr %0, align 4, !tbaa !14
  %5 = add i32 %4, 1
  store i32 %5, ptr %0, align 4, !tbaa !14
  br label %6

6:                                                ; preds = %1, %3
  ret void
}